; Function Attrs: nounwind uwtable
define hidden ptr @lj_tab_new1(ptr noundef %0, i32 noundef %1) local_unnamed_addr #0 {
  %3 = and i32 %1, 16777215
  %4 = lshr i32 %1, 24
  %5 = tail call fastcc ptr @newtab(ptr noundef %0, i32 noundef %3, i32 noundef %4)
  %6 = getelementptr inbounds nuw i8, ptr %5, i64 48
  %7 = load i32, ptr %6, align 8, !tbaa !4
  %.not9 = icmp eq i32 %7, 0
  br i1 %.not9, label %clearapart.exit, label %.lr.ph.preheader

.lr.ph.preheader:                                 ; preds = %2
  %8 = getelementptr inbounds nuw i8, ptr %5, i64 16
  %9 = load i64, ptr %8, align 8, !tbaa !12
  %10 = inttoptr i64 %9 to ptr
  %11 = zext i32 %7 to i64
  %12 = shl nuw nsw i64 %11, 3
  tail call void @llvm.memset.p0.i64(ptr align 8 %10, i8 -1, i64 %12, i1 false), !tbaa !13
  br label %clearapart.exit

clearapart.exit:                                  ; preds = %.lr.ph.preheader, %2
  %13 = getelementptr inbounds nuw i8, ptr %5, i64 52
  %14 = load i32, ptr %13, align 4, !tbaa !14
  %.not = icmp eq i32 %14, 0
  br i1 %.not, label %clearhpart.exit, label %15

15:                                               ; preds = %clearapart.exit
  %16 = getelementptr inbounds nuw i8, ptr %5, i64 40
  %17 = load i64, ptr %16, align 8, !tbaa !15
  %18 = inttoptr i64 %17 to ptr
  %19 = add i32 %14, 1
  %umax = tail call i32 @llvm.umax.i32(i32 %19, i32 1)
  %wide.trip.count = zext i32 %umax to i64
  br label %20

20:                                               ; preds = %15, %20
  %indvars.iv = phi i64 [ 0, %15 ], [ %indvars.iv.next, %20 ]
  %21 = getelementptr inbounds nuw %struct.Node, ptr %18, i64 %indvars.iv
  %22 = getelementptr inbounds nuw i8, ptr %21, i64 16
  store i64 0, ptr %22, align 8, !tbaa !16
  %indvars.iv.next = add nuw nsw i64 %indvars.iv, 1
  %exitcond = icmp eq i64 %indvars.iv.next, %wide.trip.count
  tail call void @llvm.memset.p0.i64(ptr noundef nonnull align 8 dereferenceable(16) %21, i8 -1, i64 16, i1 false)
  br i1 %exitcond, label %clearhpart.exit, label %20, !llvm.loop !18

clearhpart.exit:                                  ; preds = %20, %clearapart.exit
  ret ptr %5
}